target datalayout = "e-m:e-p270:32:32-p271:32:32-p272:64:64-i64:64-i128:128-f80:128-n8:16:32:64-S128"
target triple = "x86_64-pc-linux-gnu"

%struct.pmix_object_t = type { %union.pthread_mutex_t, ptr, i32, %struct.pmix_tma }
%union.pthread_mutex_t = type { %struct.__pthread_mutex_s }
%struct.__pthread_mutex_s = type { i32, i32, i32, i32, i32, i16, i16, %struct.__pthread_internal_list }
%struct.__pthread_internal_list = type { ptr, ptr }
%struct.pmix_tma = type { ptr, ptr, ptr, ptr, ptr, ptr, ptr, ptr }
%struct.pmix_bfrop_type_info_t = type { %struct.pmix_object_t, i16, ptr, ptr, ptr, ptr, ptr }
%struct.pmix_pointer_array_t = type { %struct.pmix_object_t, i32, i32, i32, i32, i32, ptr, ptr }

; Function Attrs: inlinehint nounwind uwtable
define internal ptr @pmix_pointer_array_get_item(ptr noundef %0, i32 noundef %1) #3 {
  %3 = alloca ptr, align 8
  %4 = alloca ptr, align 8
  %5 = alloca i32, align 4
  %6 = alloca ptr, align 8
  %7 = alloca i32, align 4
  store ptr %0, ptr %4, align 8, !tbaa !3
  store i32 %1, ptr %5, align 4, !tbaa !9
  call void @llvm.lifetime.start.p0(i64 8, ptr %6) #9
  %8 = load i32, ptr %5, align 4, !tbaa !9
  %9 = icmp sgt i32 0, %8
  br i1 %9, label %16, label %10

10:                                               ; preds = %2
  %11 = load ptr, ptr %4, align 8, !tbaa !3
  %12 = getelementptr inbounds nuw %struct.pmix_pointer_array_t, ptr %11, i32 0, i32 3
  %13 = load i32, ptr %12, align 8, !tbaa !22
  %14 = load i32, ptr %5, align 4, !tbaa !9
  %15 = icmp sle i32 %13, %14
  br label %16

16:                                               ; preds = %10, %2
  %17 = phi i1 [ true, %2 ], [ %15, %10 ]
  %18 = xor i1 %17, true
  %19 = xor i1 %18, true
  %20 = zext i1 %19 to i32
  %21 = sext i32 %20 to i64
  %22 = call i64 @llvm.expect.i64(i64 %21, i64 0)
  %23 = icmp ne i64 %22, 0
  br i1 %23, label %24, label %25

24:                                               ; preds = %16
  store ptr null, ptr %3, align 8
  store i32 1, ptr %7, align 4
  br label %34

25:                                               ; preds = %16
  %26 = load ptr, ptr %4, align 8, !tbaa !3
  %27 = getelementptr inbounds nuw %struct.pmix_pointer_array_t, ptr %26, i32 0, i32 7
  %28 = load ptr, ptr %27, align 8, !tbaa !25
  %29 = load i32, ptr %5, align 4, !tbaa !9
  %30 = sext i32 %29 to i64
  %31 = getelementptr inbounds ptr, ptr %28, i64 %30
  %32 = load ptr, ptr %31, align 8, !tbaa !8
  store ptr %32, ptr %6, align 8, !tbaa !8
  %33 = load ptr, ptr %6, align 8, !tbaa !8
  store ptr %33, ptr %3, align 8
  store i32 1, ptr %7, align 4
  br label %34

34:                                               ; preds = %25, %24
  call void @llvm.lifetime.end.p0(i64 8, ptr %6) #9
  %35 = load ptr, ptr %3, align 8
  ret ptr %35
}

; Function Attrs: nounwind uwtable
define i32 @pmix_bfrops_base_pack_string(ptr noundef %0, ptr noundef %1, ptr noundef %2, i32 noundef %3, i16 noundef zeroext %4) #0 {
  %6 = alloca i32, align 4
  %7 = alloca ptr, align 8
  %8 = alloca ptr, align 8
  %9 = alloca ptr, align 8
  %10 = alloca i32, align 4
  %11 = alloca i16, align 2
  %12 = alloca i32, align 4
  %13 = alloca i32, align 4
  %14 = alloca i32, align 4
  %15 = alloca ptr, align 8
  %16 = alloca ptr, align 8
  %17 = alloca i32, align 4
  %18 = alloca ptr, align 8
  %19 = alloca ptr, align 8
  store ptr %0, ptr %7, align 8, !tbaa !3
  store ptr %1, ptr %8, align 8, !tbaa !8
  store ptr %2, ptr %9, align 8, !tbaa !8
  store i32 %3, ptr %10, align 4, !tbaa !9
  store i16 %4, ptr %11, align 2, !tbaa !11
  call void @llvm.lifetime.start.p0(i64 4, ptr %12) #9
  store i32 0, ptr %12, align 4, !tbaa !9
  call void @llvm.lifetime.start.p0(i64 4, ptr %13) #9
  call void @llvm.lifetime.start.p0(i64 4, ptr %14) #9
  call void @llvm.lifetime.start.p0(i64 8, ptr %15) #9
  %20 = load ptr, ptr %9, align 8, !tbaa !8
  store ptr %20, ptr %15, align 8, !tbaa !54
  store i32 0, ptr %13, align 4, !tbaa !9
  br label %21

21:                                               ; preds = %112, %5
  %22 = load i32, ptr %13, align 4, !tbaa !9
  %23 = load i32, ptr %10, align 4, !tbaa !9
  %24 = icmp slt i32 %22, %23
  br i1 %24, label %25, label %115

25:                                               ; preds = %21
  %26 = load ptr, ptr %15, align 8, !tbaa !54
  %27 = load i32, ptr %13, align 4, !tbaa !9
  %28 = sext i32 %27 to i64
  %29 = getelementptr inbounds ptr, ptr %26, i64 %28
  %30 = load ptr, ptr %29, align 8, !tbaa !37
  %31 = icmp eq ptr null, %30
  br i1 %31, label %32, label %54

32:                                               ; preds = %25
  store i32 0, ptr %14, align 4, !tbaa !9
  br label %33

33:                                               ; preds = %32
  call void @llvm.lifetime.start.p0(i64 8, ptr %16) #9
  %34 = load ptr, ptr %7, align 8, !tbaa !3
  %35 = call ptr @pmix_pointer_array_get_item(ptr noundef %34, i32 noundef 9)
  store ptr %35, ptr %16, align 8, !tbaa !8
  %36 = load ptr, ptr %16, align 8, !tbaa !8
  %37 = icmp eq ptr null, %36
  br i1 %37, label %38, label %39

38:                                               ; preds = %33
  store i32 -16, ptr %12, align 4, !tbaa !9
  br label %46

39:                                               ; preds = %33
  %40 = load ptr, ptr %16, align 8, !tbaa !8
  %41 = getelementptr inbounds nuw %struct.pmix_bfrop_type_info_t, ptr %40, i32 0, i32 3
  %42 = load ptr, ptr %41, align 8, !tbaa !20
  %43 = load ptr, ptr %7, align 8, !tbaa !3
  %44 = load ptr, ptr %8, align 8, !tbaa !8
  %45 = call i32 %42(ptr noundef %43, ptr noundef %44, ptr noundef %14, i32 noundef 1, i16 noundef zeroext 9)
  store i32 %45, ptr %12, align 4, !tbaa !9
  br label %46

46:                                               ; preds = %39, %38
  call void @llvm.lifetime.end.p0(i64 8, ptr %16) #9
  br label %47

47:                                               ; preds = %46
  br label %48

48:                                               ; preds = %47
  %49 = load i32, ptr %12, align 4, !tbaa !9
  %50 = icmp ne i32 0, %49
  br i1 %50, label %51, label %53

51:                                               ; preds = %48
  %52 = load i32, ptr %12, align 4, !tbaa !9
  store i32 %52, ptr %6, align 4
  store i32 1, ptr %17, align 4
  br label %117

53:                                               ; preds = %48
  br label %111

54:                                               ; preds = %25
  %55 = load ptr, ptr %15, align 8, !tbaa !54
  %56 = load i32, ptr %13, align 4, !tbaa !9
  %57 = sext i32 %56 to i64
  %58 = getelementptr inbounds ptr, ptr %55, i64 %57
  %59 = load ptr, ptr %58, align 8, !tbaa !37
  %60 = call i64 @strlen(ptr noundef %59) #11
  %61 = trunc i64 %60 to i32
  %62 = add nsw i32 %61, 1
  store i32 %62, ptr %14, align 4, !tbaa !9
  br label %63

63:                                               ; preds = %54
  call void @llvm.lifetime.start.p0(i64 8, ptr %18) #9
  %64 = load ptr, ptr %7, align 8, !tbaa !3
  %65 = call ptr @pmix_pointer_array_get_item(ptr noundef %64, i32 noundef 9)
  store ptr %65, ptr %18, align 8, !tbaa !8
  %66 = load ptr, ptr %18, align 8, !tbaa !8
  %67 = icmp eq ptr null, %66
  br i1 %67, label %68, label %69

68:                                               ; preds = %63
  store i32 -16, ptr %12, align 4, !tbaa !9
  br label %76

69:                                               ; preds = %63
  %70 = load ptr, ptr %18, align 8, !tbaa !8
  %71 = getelementptr inbounds nuw %struct.pmix_bfrop_type_info_t, ptr %70, i32 0, i32 3
  %72 = load ptr, ptr %71, align 8, !tbaa !20
  %73 = load ptr, ptr %7, align 8, !tbaa !3
  %74 = load ptr, ptr %8, align 8, !tbaa !8
  %75 = call i32 %72(ptr noundef %73, ptr noundef %74, ptr noundef %14, i32 noundef 1, i16 noundef zeroext 9)
  store i32 %75, ptr %12, align 4, !tbaa !9
  br label %76

76:                                               ; preds = %69, %68
  call void @llvm.lifetime.end.p0(i64 8, ptr %18) #9
  br label %77

77:                                               ; preds = %76
  br label %78

78:                                               ; preds = %77
  %79 = load i32, ptr %12, align 4, !tbaa !9
  %80 = icmp ne i32 0, %79
  br i1 %80, label %81, label %83

81:                                               ; preds = %78
  %82 = load i32, ptr %12, align 4, !tbaa !9
  store i32 %82, ptr %6, align 4
  store i32 1, ptr %17, align 4
  br label %117

83:                                               ; preds = %78
  br label %84

84:                                               ; preds = %83
  call void @llvm.lifetime.start.p0(i64 8, ptr %19) #9
  %85 = load ptr, ptr %7, align 8, !tbaa !3
  %86 = call ptr @pmix_pointer_array_get_item(ptr noundef %85, i32 noundef 2)
  store ptr %86, ptr %19, align 8, !tbaa !8
  %87 = load ptr, ptr %19, align 8, !tbaa !8
  %88 = icmp eq ptr null, %87
  br i1 %88, label %89, label %90

89:                                               ; preds = %84
  store i32 -16, ptr %12, align 4, !tbaa !9
  br label %103

90:                                               ; preds = %84
  %91 = load ptr, ptr %19, align 8, !tbaa !8
  %92 = getelementptr inbounds nuw %struct.pmix_bfrop_type_info_t, ptr %91, i32 0, i32 3
  %93 = load ptr, ptr %92, align 8, !tbaa !20
  %94 = load ptr, ptr %7, align 8, !tbaa !3
  %95 = load ptr, ptr %8, align 8, !tbaa !8
  %96 = load ptr, ptr %15, align 8, !tbaa !54
  %97 = load i32, ptr %13, align 4, !tbaa !9
  %98 = sext i32 %97 to i64
  %99 = getelementptr inbounds ptr, ptr %96, i64 %98
  %100 = load ptr, ptr %99, align 8, !tbaa !37
  %101 = load i32, ptr %14, align 4, !tbaa !9
  %102 = call i32 %93(ptr noundef %94, ptr noundef %95, ptr noundef %100, i32 noundef %101, i16 noundef zeroext 2)
  store i32 %102, ptr %12, align 4, !tbaa !9
  br label %103

103:                                              ; preds = %90, %89
  call void @llvm.lifetime.end.p0(i64 8, ptr %19) #9
  br label %104

104:                                              ; preds = %103
  br label %105

105:                                              ; preds = %104
  %106 = load i32, ptr %12, align 4, !tbaa !9
  %107 = icmp ne i32 0, %106
  br i1 %107, label %108, label %110

108:                                              ; preds = %105
  %109 = load i32, ptr %12, align 4, !tbaa !9
  store i32 %109, ptr %6, align 4
  store i32 1, ptr %17, align 4
  br label %117

110:                                              ; preds = %105
  br label %111

111:                                              ; preds = %110, %53
  br label %112

112:                                              ; preds = %111
  %113 = load i32, ptr %13, align 4, !tbaa !9
  %114 = add nsw i32 %113, 1
  store i32 %114, ptr %13, align 4, !tbaa !9
  br label %21, !llvm.loop !56

115:                                              ; preds = %21
  %116 = load i32, ptr %12, align 4, !tbaa !9
  store i32 %116, ptr %6, align 4
  store i32 1, ptr %17, align 4
  br label %117

117:                                              ; preds = %115, %108, %81, %51
  call void @llvm.lifetime.end.p0(i64 8, ptr %15) #9
  call void @llvm.lifetime.end.p0(i64 4, ptr %14) #9
  call void @llvm.lifetime.end.p0(i64 4, ptr %13) #9
  call void @llvm.lifetime.end.p0(i64 4, ptr %12) #9
  %118 = load i32, ptr %6, align 4
  ret i32 %118
}