; Function Attrs: nounwind uwtable
define i32 @pmix_bfrops_base_pack_string(ptr noundef %0, ptr noundef %1, ptr noundef readonly captures(none) %2, i32 noundef %3, i16 noundef zeroext %4) local_unnamed_addr #0 {
  %6 = alloca i32, align 4
  call void @llvm.lifetime.start.p0(i64 4, ptr nonnull %6) #8
  %7 = getelementptr inbounds nuw i8, ptr %0, i64 152
  %8 = icmp sgt i32 %3, 0
  br i1 %8, label %.lr.ph, label %.thread

.lr.ph:                                           ; preds = %5
  %9 = getelementptr inbounds nuw i8, ptr %0, i64 128
  %wide.trip.count = zext nneg i32 %3 to i64
  br label %10

10:                                               ; preds = %.lr.ph, %49
  %indvars.iv = phi i64 [ 0, %.lr.ph ], [ %indvars.iv.next, %49 ]
  %11 = getelementptr inbounds nuw ptr, ptr %2, i64 %indvars.iv
  %12 = load ptr, ptr %11, align 8, !tbaa !45
  %13 = icmp eq ptr %12, null
  br i1 %13, label %14, label %24

14:                                               ; preds = %10
  store i32 0, ptr %6, align 4, !tbaa !3
  %15 = load i32, ptr %9, align 8, !tbaa !15
  %.not.i = icmp sgt i32 %15, 9
  br i1 %.not.i, label %pmix_pointer_array_get_item.exit, label %.thread, !prof !18

pmix_pointer_array_get_item.exit:                 ; preds = %14
  %16 = load ptr, ptr %7, align 8, !tbaa !19
  %17 = getelementptr inbounds nuw i8, ptr %16, i64 72
  %18 = load ptr, ptr %17, align 8, !tbaa !20
  %19 = icmp eq ptr %18, null
  br i1 %19, label %.thread, label %20

20:                                               ; preds = %pmix_pointer_array_get_item.exit
  %21 = getelementptr inbounds nuw i8, ptr %18, i64 136
  %22 = load ptr, ptr %21, align 8, !tbaa !21
  %23 = call i32 %22(ptr noundef nonnull %0, ptr noundef %1, ptr noundef nonnull %6, i32 noundef 1, i16 noundef zeroext 9) #8
  %.not39 = icmp eq i32 %23, 0
  br i1 %.not39, label %49, label %.thread

24:                                               ; preds = %10
  %25 = call i64 @strlen(ptr noundef nonnull dereferenceable(1) %12) #9
  %26 = trunc i64 %25 to i32
  %27 = add nsw i32 %26, 1
  store i32 %27, ptr %6, align 4, !tbaa !3
  %28 = load i32, ptr %9, align 8, !tbaa !15
  %.not.i40 = icmp sgt i32 %28, 9
  br i1 %.not.i40, label %pmix_pointer_array_get_item.exit42, label %.thread, !prof !18

pmix_pointer_array_get_item.exit42:               ; preds = %24
  %29 = load ptr, ptr %7, align 8, !tbaa !19
  %30 = getelementptr inbounds nuw i8, ptr %29, i64 72
  %31 = load ptr, ptr %30, align 8, !tbaa !20
  %32 = icmp eq ptr %31, null
  br i1 %32, label %.thread, label %33

33:                                               ; preds = %pmix_pointer_array_get_item.exit42
  %34 = getelementptr inbounds nuw i8, ptr %31, i64 136
  %35 = load ptr, ptr %34, align 8, !tbaa !21
  %36 = call i32 %35(ptr noundef nonnull %0, ptr noundef %1, ptr noundef nonnull %6, i32 noundef 1, i16 noundef zeroext 9) #8
  %.not = icmp eq i32 %36, 0
  br i1 %.not, label %37, label %.thread

37:                                               ; preds = %33
  %38 = load i32, ptr %9, align 8, !tbaa !15
  %.not.i43 = icmp sgt i32 %38, 2
  br i1 %.not.i43, label %pmix_pointer_array_get_item.exit45, label %.thread, !prof !18

pmix_pointer_array_get_item.exit45:               ; preds = %37
  %39 = load ptr, ptr %7, align 8, !tbaa !19
  %40 = getelementptr inbounds nuw i8, ptr %39, i64 16
  %41 = load ptr, ptr %40, align 8, !tbaa !20
  %42 = icmp eq ptr %41, null
  br i1 %42, label %.thread, label %43

43:                                               ; preds = %pmix_pointer_array_get_item.exit45
  %44 = getelementptr inbounds nuw i8, ptr %41, i64 136
  %45 = load ptr, ptr %44, align 8, !tbaa !21
  %46 = load ptr, ptr %11, align 8, !tbaa !45
  %47 = load i32, ptr %6, align 4, !tbaa !3
  %48 = call i32 %45(ptr noundef nonnull %0, ptr noundef %1, ptr noundef %46, i32 noundef %47, i16 noundef zeroext 2) #8
  %.not38 = icmp eq i32 %48, 0
  br i1 %.not38, label %49, label %.thread

49:                                               ; preds = %20, %43
  %indvars.iv.next = add nuw nsw i64 %indvars.iv, 1
  %exitcond.not = icmp eq i64 %indvars.iv.next, %wide.trip.count
  br i1 %exitcond.not, label %.thread, label %10, !llvm.loop !46

.thread:                                          ; preds = %20, %33, %43, %49, %pmix_pointer_array_get_item.exit, %14, %pmix_pointer_array_get_item.exit42, %24, %pmix_pointer_array_get_item.exit45, %37, %5
  %.0 = phi i32 [ 0, %5 ], [ -16, %37 ], [ -16, %pmix_pointer_array_get_item.exit45 ], [ -16, %24 ], [ -16, %pmix_pointer_array_get_item.exit42 ], [ -16, %14 ], [ -16, %pmix_pointer_array_get_item.exit ], [ 0, %49 ], [ %48, %43 ], [ %36, %33 ], [ %23, %20 ]
  call void @llvm.lifetime.end.p0(i64 4, ptr nonnull %6) #8
  ret i32 %.0
}